target datalayout = "e-m:e-p270:32:32-p271:32:32-p272:64:64-i64:64-i128:128-f80:128-n8:16:32:64-S128"
target triple = "x86_64-pc-linux-gnu"

%struct.SHA256_CTX = type { [64 x i8], i32, i64, [8 x i32] }

; Function Attrs: nounwind uwtable
define dso_local void @sha256_final(ptr noundef %0, ptr noundef %1) #0 {
  %3 = alloca ptr, align 8
  %4 = alloca ptr, align 8
  %5 = alloca i32, align 4
  store ptr %0, ptr %3, align 8, !tbaa !5
  store ptr %1, ptr %4, align 8, !tbaa !9
  call void @llvm.lifetime.start.p0(i64 4, ptr %5) #3
  %6 = load ptr, ptr %3, align 8, !tbaa !5
  %7 = getelementptr inbounds nuw %struct.SHA256_CTX, ptr %6, i32 0, i32 1
  %8 = load i32, ptr %7, align 8, !tbaa !18
  store i32 %8, ptr %5, align 4, !tbaa !11
  %9 = load ptr, ptr %3, align 8, !tbaa !5
  %10 = getelementptr inbounds nuw %struct.SHA256_CTX, ptr %9, i32 0, i32 1
  %11 = load i32, ptr %10, align 8, !tbaa !18
  %12 = icmp ult i32 %11, 56
  br i1 %12, label %13, label %31

13:                                               ; preds = %2
  %14 = load ptr, ptr %3, align 8, !tbaa !5
  %15 = getelementptr inbounds nuw %struct.SHA256_CTX, ptr %14, i32 0, i32 0
  %16 = load i32, ptr %5, align 4, !tbaa !11
  %17 = add i32 %16, 1
  store i32 %17, ptr %5, align 4, !tbaa !11
  %18 = zext i32 %16 to i64
  %19 = getelementptr inbounds nuw [64 x i8], ptr %15, i64 0, i64 %18
  store i8 -128, ptr %19, align 1, !tbaa !13
  br label %20

20:                                               ; preds = %23, %13
  %21 = load i32, ptr %5, align 4, !tbaa !11
  %22 = icmp ult i32 %21, 56
  br i1 %22, label %23, label %30

23:                                               ; preds = %20
  %24 = load ptr, ptr %3, align 8, !tbaa !5
  %25 = getelementptr inbounds nuw %struct.SHA256_CTX, ptr %24, i32 0, i32 0
  %26 = load i32, ptr %5, align 4, !tbaa !11
  %27 = add i32 %26, 1
  store i32 %27, ptr %5, align 4, !tbaa !11
  %28 = zext i32 %26 to i64
  %29 = getelementptr inbounds nuw [64 x i8], ptr %25, i64 0, i64 %28
  store i8 0, ptr %29, align 1, !tbaa !13
  br label %20, !llvm.loop !25

30:                                               ; preds = %20
  br label %56

31:                                               ; preds = %2
  %32 = load ptr, ptr %3, align 8, !tbaa !5
  %33 = getelementptr inbounds nuw %struct.SHA256_CTX, ptr %32, i32 0, i32 0
  %34 = load i32, ptr %5, align 4, !tbaa !11
  %35 = add i32 %34, 1
  store i32 %35, ptr %5, align 4, !tbaa !11
  %36 = zext i32 %34 to i64
  %37 = getelementptr inbounds nuw [64 x i8], ptr %33, i64 0, i64 %36
  store i8 -128, ptr %37, align 1, !tbaa !13
  br label %38

38:                                               ; preds = %41, %31
  %39 = load i32, ptr %5, align 4, !tbaa !11
  %40 = icmp ult i32 %39, 64
  br i1 %40, label %41, label %48

41:                                               ; preds = %38
  %42 = load ptr, ptr %3, align 8, !tbaa !5
  %43 = getelementptr inbounds nuw %struct.SHA256_CTX, ptr %42, i32 0, i32 0
  %44 = load i32, ptr %5, align 4, !tbaa !11
  %45 = add i32 %44, 1
  store i32 %45, ptr %5, align 4, !tbaa !11
  %46 = zext i32 %44 to i64
  %47 = getelementptr inbounds nuw [64 x i8], ptr %43, i64 0, i64 %46
  store i8 0, ptr %47, align 1, !tbaa !13
  br label %38, !llvm.loop !26

48:                                               ; preds = %38
  %49 = load ptr, ptr %3, align 8, !tbaa !5
  %50 = load ptr, ptr %3, align 8, !tbaa !5
  %51 = getelementptr inbounds nuw %struct.SHA256_CTX, ptr %50, i32 0, i32 0
  %52 = getelementptr inbounds [64 x i8], ptr %51, i64 0, i64 0
  call void @sha256_transform(ptr noundef %49, ptr noundef %52)
  %53 = load ptr, ptr %3, align 8, !tbaa !5
  %54 = getelementptr inbounds nuw %struct.SHA256_CTX, ptr %53, i32 0, i32 0
  %55 = getelementptr inbounds [64 x i8], ptr %54, i64 0, i64 0
  call void @llvm.memset.p0.i64(ptr align 8 %55, i8 0, i64 56, i1 false)
  br label %56

56:                                               ; preds = %48, %30
  %57 = load ptr, ptr %3, align 8, !tbaa !5
  %58 = getelementptr inbounds nuw %struct.SHA256_CTX, ptr %57, i32 0, i32 1
  %59 = load i32, ptr %58, align 8, !tbaa !18
  %60 = mul i32 %59, 8
  %61 = zext i32 %60 to i64
  %62 = load ptr, ptr %3, align 8, !tbaa !5
  %63 = getelementptr inbounds nuw %struct.SHA256_CTX, ptr %62, i32 0, i32 2
  %64 = load i64, ptr %63, align 8, !tbaa !21
  %65 = add i64 %64, %61
  store i64 %65, ptr %63, align 8, !tbaa !21
  %66 = load ptr, ptr %3, align 8, !tbaa !5
  %67 = getelementptr inbounds nuw %struct.SHA256_CTX, ptr %66, i32 0, i32 2
  %68 = load i64, ptr %67, align 8, !tbaa !21
  %69 = trunc i64 %68 to i8
  %70 = load ptr, ptr %3, align 8, !tbaa !5
  %71 = getelementptr inbounds nuw %struct.SHA256_CTX, ptr %70, i32 0, i32 0
  %72 = getelementptr inbounds [64 x i8], ptr %71, i64 0, i64 63
  store i8 %69, ptr %72, align 1, !tbaa !13
  %73 = load ptr, ptr %3, align 8, !tbaa !5
  %74 = getelementptr inbounds nuw %struct.SHA256_CTX, ptr %73, i32 0, i32 2
  %75 = load i64, ptr %74, align 8, !tbaa !21
  %76 = lshr i64 %75, 8
  %77 = trunc i64 %76 to i8
  %78 = load ptr, ptr %3, align 8, !tbaa !5
  %79 = getelementptr inbounds nuw %struct.SHA256_CTX, ptr %78, i32 0, i32 0
  %80 = getelementptr inbounds [64 x i8], ptr %79, i64 0, i64 62
  store i8 %77, ptr %80, align 2, !tbaa !13
  %81 = load ptr, ptr %3, align 8, !tbaa !5
  %82 = getelementptr inbounds nuw %struct.SHA256_CTX, ptr %81, i32 0, i32 2
  %83 = load i64, ptr %82, align 8, !tbaa !21
  %84 = lshr i64 %83, 16
  %85 = trunc i64 %84 to i8
  %86 = load ptr, ptr %3, align 8, !tbaa !5
  %87 = getelementptr inbounds nuw %struct.SHA256_CTX, ptr %86, i32 0, i32 0
  %88 = getelementptr inbounds [64 x i8], ptr %87, i64 0, i64 61
  store i8 %85, ptr %88, align 1, !tbaa !13
  %89 = load ptr, ptr %3, align 8, !tbaa !5
  %90 = getelementptr inbounds nuw %struct.SHA256_CTX, ptr %89, i32 0, i32 2
  %91 = load i64, ptr %90, align 8, !tbaa !21
  %92 = lshr i64 %91, 24
  %93 = trunc i64 %92 to i8
  %94 = load ptr, ptr %3, align 8, !tbaa !5
  %95 = getelementptr inbounds nuw %struct.SHA256_CTX, ptr %94, i32 0, i32 0
  %96 = getelementptr inbounds [64 x i8], ptr %95, i64 0, i64 60
  store i8 %93, ptr %96, align 4, !tbaa !13
  %97 = load ptr, ptr %3, align 8, !tbaa !5
  %98 = getelementptr inbounds nuw %struct.SHA256_CTX, ptr %97, i32 0, i32 2
  %99 = load i64, ptr %98, align 8, !tbaa !21
  %100 = lshr i64 %99, 32
  %101 = trunc i64 %100 to i8
  %102 = load ptr, ptr %3, align 8, !tbaa !5
  %103 = getelementptr inbounds nuw %struct.SHA256_CTX, ptr %102, i32 0, i32 0
  %104 = getelementptr inbounds [64 x i8], ptr %103, i64 0, i64 59
  store i8 %101, ptr %104, align 1, !tbaa !13
  %105 = load ptr, ptr %3, align 8, !tbaa !5
  %106 = getelementptr inbounds nuw %struct.SHA256_CTX, ptr %105, i32 0, i32 2
  %107 = load i64, ptr %106, align 8, !tbaa !21
  %108 = lshr i64 %107, 40
  %109 = trunc i64 %108 to i8
  %110 = load ptr, ptr %3, align 8, !tbaa !5
  %111 = getelementptr inbounds nuw %struct.SHA256_CTX, ptr %110, i32 0, i32 0
  %112 = getelementptr inbounds [64 x i8], ptr %111, i64 0, i64 58
  store i8 %109, ptr %112, align 2, !tbaa !13
  %113 = load ptr, ptr %3, align 8, !tbaa !5
  %114 = getelementptr inbounds nuw %struct.SHA256_CTX, ptr %113, i32 0, i32 2
  %115 = load i64, ptr %114, align 8, !tbaa !21
  %116 = lshr i64 %115, 48
  %117 = trunc i64 %116 to i8
  %118 = load ptr, ptr %3, align 8, !tbaa !5
  %119 = getelementptr inbounds nuw %struct.SHA256_CTX, ptr %118, i32 0, i32 0
  %120 = getelementptr inbounds [64 x i8], ptr %119, i64 0, i64 57
  store i8 %117, ptr %120, align 1, !tbaa !13
  %121 = load ptr, ptr %3, align 8, !tbaa !5
  %122 = getelementptr inbounds nuw %struct.SHA256_CTX, ptr %121, i32 0, i32 2
  %123 = load i64, ptr %122, align 8, !tbaa !21
  %124 = lshr i64 %123, 56
  %125 = trunc i64 %124 to i8
  %126 = load ptr, ptr %3, align 8, !tbaa !5
  %127 = getelementptr inbounds nuw %struct.SHA256_CTX, ptr %126, i32 0, i32 0
  %128 = getelementptr inbounds [64 x i8], ptr %127, i64 0, i64 56
  store i8 %125, ptr %128, align 8, !tbaa !13
  %129 = load ptr, ptr %3, align 8, !tbaa !5
  %130 = load ptr, ptr %3, align 8, !tbaa !5
  %131 = getelementptr inbounds nuw %struct.SHA256_CTX, ptr %130, i32 0, i32 0
  %132 = getelementptr inbounds [64 x i8], ptr %131, i64 0, i64 0
  call void @sha256_transform(ptr noundef %129, ptr noundef %132)
  store i32 0, ptr %5, align 4, !tbaa !11
  br label %133

133:                                              ; preds = %256, %56
  %134 = load i32, ptr %5, align 4, !tbaa !11
  %135 = icmp ult i32 %134, 4
  br i1 %135, label %136, label %259

136:                                              ; preds = %133
  %137 = load ptr, ptr %3, align 8, !tbaa !5
  %138 = getelementptr inbounds nuw %struct.SHA256_CTX, ptr %137, i32 0, i32 3
  %139 = getelementptr inbounds [8 x i32], ptr %138, i64 0, i64 0
  %140 = load i32, ptr %139, align 8, !tbaa !11
  %141 = load i32, ptr %5, align 4, !tbaa !11
  %142 = mul i32 %141, 8
  %143 = sub i32 24, %142
  %144 = lshr i32 %140, %143
  %145 = and i32 %144, 255
  %146 = trunc i32 %145 to i8
  %147 = load ptr, ptr %4, align 8, !tbaa !9
  %148 = load i32, ptr %5, align 4, !tbaa !11
  %149 = zext i32 %148 to i64
  %150 = getelementptr inbounds nuw i8, ptr %147, i64 %149
  store i8 %146, ptr %150, align 1, !tbaa !13
  %151 = load ptr, ptr %3, align 8, !tbaa !5
  %152 = getelementptr inbounds nuw %struct.SHA256_CTX, ptr %151, i32 0, i32 3
  %153 = getelementptr inbounds [8 x i32], ptr %152, i64 0, i64 1
  %154 = load i32, ptr %153, align 4, !tbaa !11
  %155 = load i32, ptr %5, align 4, !tbaa !11
  %156 = mul i32 %155, 8
  %157 = sub i32 24, %156
  %158 = lshr i32 %154, %157
  %159 = and i32 %158, 255
  %160 = trunc i32 %159 to i8
  %161 = load ptr, ptr %4, align 8, !tbaa !9
  %162 = load i32, ptr %5, align 4, !tbaa !11
  %163 = add i32 %162, 4
  %164 = zext i32 %163 to i64
  %165 = getelementptr inbounds nuw i8, ptr %161, i64 %164
  store i8 %160, ptr %165, align 1, !tbaa !13
  %166 = load ptr, ptr %3, align 8, !tbaa !5
  %167 = getelementptr inbounds nuw %struct.SHA256_CTX, ptr %166, i32 0, i32 3
  %168 = getelementptr inbounds [8 x i32], ptr %167, i64 0, i64 2
  %169 = load i32, ptr %168, align 8, !tbaa !11
  %170 = load i32, ptr %5, align 4, !tbaa !11
  %171 = mul i32 %170, 8
  %172 = sub i32 24, %171
  %173 = lshr i32 %169, %172
  %174 = and i32 %173, 255
  %175 = trunc i32 %174 to i8
  %176 = load ptr, ptr %4, align 8, !tbaa !9
  %177 = load i32, ptr %5, align 4, !tbaa !11
  %178 = add i32 %177, 8
  %179 = zext i32 %178 to i64
  %180 = getelementptr inbounds nuw i8, ptr %176, i64 %179
  store i8 %175, ptr %180, align 1, !tbaa !13
  %181 = load ptr, ptr %3, align 8, !tbaa !5
  %182 = getelementptr inbounds nuw %struct.SHA256_CTX, ptr %181, i32 0, i32 3
  %183 = getelementptr inbounds [8 x i32], ptr %182, i64 0, i64 3
  %184 = load i32, ptr %183, align 4, !tbaa !11
  %185 = load i32, ptr %5, align 4, !tbaa !11
  %186 = mul i32 %185, 8
  %187 = sub i32 24, %186
  %188 = lshr i32 %184, %187
  %189 = and i32 %188, 255
  %190 = trunc i32 %189 to i8
  %191 = load ptr, ptr %4, align 8, !tbaa !9
  %192 = load i32, ptr %5, align 4, !tbaa !11
  %193 = add i32 %192, 12
  %194 = zext i32 %193 to i64
  %195 = getelementptr inbounds nuw i8, ptr %191, i64 %194
  store i8 %190, ptr %195, align 1, !tbaa !13
  %196 = load ptr, ptr %3, align 8, !tbaa !5
  %197 = getelementptr inbounds nuw %struct.SHA256_CTX, ptr %196, i32 0, i32 3
  %198 = getelementptr inbounds [8 x i32], ptr %197, i64 0, i64 4
  %199 = load i32, ptr %198, align 8, !tbaa !11
  %200 = load i32, ptr %5, align 4, !tbaa !11
  %201 = mul i32 %200, 8
  %202 = sub i32 24, %201
  %203 = lshr i32 %199, %202
  %204 = and i32 %203, 255
  %205 = trunc i32 %204 to i8
  %206 = load ptr, ptr %4, align 8, !tbaa !9
  %207 = load i32, ptr %5, align 4, !tbaa !11
  %208 = add i32 %207, 16
  %209 = zext i32 %208 to i64
  %210 = getelementptr inbounds nuw i8, ptr %206, i64 %209
  store i8 %205, ptr %210, align 1, !tbaa !13
  %211 = load ptr, ptr %3, align 8, !tbaa !5
  %212 = getelementptr inbounds nuw %struct.SHA256_CTX, ptr %211, i32 0, i32 3
  %213 = getelementptr inbounds [8 x i32], ptr %212, i64 0, i64 5
  %214 = load i32, ptr %213, align 4, !tbaa !11
  %215 = load i32, ptr %5, align 4, !tbaa !11
  %216 = mul i32 %215, 8
  %217 = sub i32 24, %216
  %218 = lshr i32 %214, %217
  %219 = and i32 %218, 255
  %220 = trunc i32 %219 to i8
  %221 = load ptr, ptr %4, align 8, !tbaa !9
  %222 = load i32, ptr %5, align 4, !tbaa !11
  %223 = add i32 %222, 20
  %224 = zext i32 %223 to i64
  %225 = getelementptr inbounds nuw i8, ptr %221, i64 %224
  store i8 %220, ptr %225, align 1, !tbaa !13
  %226 = load ptr, ptr %3, align 8, !tbaa !5
  %227 = getelementptr inbounds nuw %struct.SHA256_CTX, ptr %226, i32 0, i32 3
  %228 = getelementptr inbounds [8 x i32], ptr %227, i64 0, i64 6
  %229 = load i32, ptr %228, align 8, !tbaa !11
  %230 = load i32, ptr %5, align 4, !tbaa !11
  %231 = mul i32 %230, 8
  %232 = sub i32 24, %231
  %233 = lshr i32 %229, %232
  %234 = and i32 %233, 255
  %235 = trunc i32 %234 to i8
  %236 = load ptr, ptr %4, align 8, !tbaa !9
  %237 = load i32, ptr %5, align 4, !tbaa !11
  %238 = add i32 %237, 24
  %239 = zext i32 %238 to i64
  %240 = getelementptr inbounds nuw i8, ptr %236, i64 %239
  store i8 %235, ptr %240, align 1, !tbaa !13
  %241 = load ptr, ptr %3, align 8, !tbaa !5
  %242 = getelementptr inbounds nuw %struct.SHA256_CTX, ptr %241, i32 0, i32 3
  %243 = getelementptr inbounds [8 x i32], ptr %242, i64 0, i64 7
  %244 = load i32, ptr %243, align 4, !tbaa !11
  %245 = load i32, ptr %5, align 4, !tbaa !11
  %246 = mul i32 %245, 8
  %247 = sub i32 24, %246
  %248 = lshr i32 %244, %247
  %249 = and i32 %248, 255
  %250 = trunc i32 %249 to i8
  %251 = load ptr, ptr %4, align 8, !tbaa !9
  %252 = load i32, ptr %5, align 4, !tbaa !11
  %253 = add i32 %252, 28
  %254 = zext i32 %253 to i64
  %255 = getelementptr inbounds nuw i8, ptr %251, i64 %254
  store i8 %250, ptr %255, align 1, !tbaa !13
  br label %256

256:                                              ; preds = %136
  %257 = load i32, ptr %5, align 4, !tbaa !11
  %258 = add i32 %257, 1
  store i32 %258, ptr %5, align 4, !tbaa !11
  br label %133, !llvm.loop !27

259:                                              ; preds = %133
  call void @llvm.lifetime.end.p0(i64 4, ptr %5) #3
  ret void
}