; Function Attrs: nofree norecurse nosync nounwind memory(argmem: readwrite) uwtable
define dso_local void @sha256_final(ptr noundef captures(none) %0, ptr noundef writeonly captures(none) %1) local_unnamed_addr #0 {
  %3 = getelementptr inbounds nuw i8, ptr %0, i64 64
  %4 = load i32, ptr %3, align 8, !tbaa !14
  %5 = icmp ult i32 %4, 56
  %6 = zext i32 %4 to i64
  %7 = getelementptr inbounds nuw [64 x i8], ptr %0, i64 0, i64 %6
  store i8 -128, ptr %7, align 1, !tbaa !9
  br i1 %5, label %8, label %11

8:                                                ; preds = %2
  %.not = icmp eq i32 %4, 55
  br i1 %.not, label %.loopexit, label %.lr.ph74.preheader

.lr.ph74.preheader:                               ; preds = %8
  %9 = getelementptr i8, ptr %0, i64 %6
  %scevgep77 = getelementptr i8, ptr %9, i64 1
  %narrow = sub nsw i32 55, %4
  %10 = zext nneg i32 %narrow to i64
  tail call void @llvm.memset.p0.i64(ptr noundef nonnull align 1 dereferenceable(1) %scevgep77, i8 0, i64 %10, i1 false), !tbaa !9
  br label %.loopexit

11:                                               ; preds = %2
  %.170 = add i32 %4, 1
  %12 = icmp ult i32 %.170, 64
  br i1 %12, label %.lr.ph.preheader, label %._crit_edge

.lr.ph.preheader:                                 ; preds = %11
  %13 = zext nneg i32 %.170 to i64
  %scevgep = getelementptr i8, ptr %0, i64 %13
  %14 = sub nsw i32 62, %4
  %15 = zext nneg i32 %14 to i64
  %16 = add nuw nsw i64 %15, 1
  tail call void @llvm.memset.p0.i64(ptr noundef nonnull align 1 dereferenceable(1) %scevgep, i8 0, i64 %16, i1 false), !tbaa !9
  br label %._crit_edge

._crit_edge:                                      ; preds = %.lr.ph.preheader, %11
  tail call void @sha256_transform(ptr noundef nonnull %0, ptr noundef nonnull %0)
  tail call void @llvm.memset.p0.i64(ptr noundef nonnull align 8 dereferenceable(56) %0, i8 0, i64 56, i1 false)
  br label %.loopexit

.loopexit:                                        ; preds = %.lr.ph74.preheader, %8, %._crit_edge
  %17 = load i32, ptr %3, align 8, !tbaa !14
  %18 = shl i32 %17, 3
  %19 = zext i32 %18 to i64
  %20 = getelementptr inbounds nuw i8, ptr %0, i64 72
  %21 = load i64, ptr %20, align 8, !tbaa !17
  %22 = add i64 %21, %19
  store i64 %22, ptr %20, align 8, !tbaa !17
  %23 = trunc i64 %22 to i8
  %24 = getelementptr inbounds nuw i8, ptr %0, i64 63
  store i8 %23, ptr %24, align 1, !tbaa !9
  %25 = lshr i64 %22, 8
  %26 = trunc i64 %25 to i8
  %27 = getelementptr inbounds nuw i8, ptr %0, i64 62
  store i8 %26, ptr %27, align 2, !tbaa !9
  %28 = lshr i64 %22, 16
  %29 = trunc i64 %28 to i8
  %30 = getelementptr inbounds nuw i8, ptr %0, i64 61
  store i8 %29, ptr %30, align 1, !tbaa !9
  %31 = lshr i64 %22, 24
  %32 = trunc i64 %31 to i8
  %33 = getelementptr inbounds nuw i8, ptr %0, i64 60
  store i8 %32, ptr %33, align 4, !tbaa !9
  %34 = lshr i64 %22, 32
  %35 = trunc i64 %34 to i8
  %36 = getelementptr inbounds nuw i8, ptr %0, i64 59
  store i8 %35, ptr %36, align 1, !tbaa !9
  %37 = lshr i64 %22, 40
  %38 = trunc i64 %37 to i8
  %39 = getelementptr inbounds nuw i8, ptr %0, i64 58
  store i8 %38, ptr %39, align 2, !tbaa !9
  %40 = lshr i64 %22, 48
  %41 = trunc i64 %40 to i8
  %42 = getelementptr inbounds nuw i8, ptr %0, i64 57
  store i8 %41, ptr %42, align 1, !tbaa !9
  %43 = lshr i64 %22, 56
  %44 = trunc nuw i64 %43 to i8
  %45 = getelementptr inbounds nuw i8, ptr %0, i64 56
  store i8 %44, ptr %45, align 8, !tbaa !9
  tail call void @sha256_transform(ptr noundef nonnull %0, ptr noundef nonnull %0)
  %46 = getelementptr inbounds nuw i8, ptr %0, i64 80
  %47 = getelementptr inbounds nuw i8, ptr %0, i64 84
  %48 = getelementptr inbounds nuw i8, ptr %0, i64 88
  %49 = getelementptr inbounds nuw i8, ptr %0, i64 92
  %50 = getelementptr inbounds nuw i8, ptr %0, i64 96
  %51 = getelementptr inbounds nuw i8, ptr %0, i64 100
  %52 = getelementptr inbounds nuw i8, ptr %0, i64 104
  %53 = getelementptr inbounds nuw i8, ptr %0, i64 108
  br label %54

54:                                               ; preds = %.loopexit, %54
  %indvars.iv = phi i64 [ 0, %.loopexit ], [ %indvars.iv.next, %54 ]
  %55 = load i32, ptr %46, align 8, !tbaa !5
  %indvars.iv.tr = trunc i64 %indvars.iv to i32
  %56 = shl i32 %indvars.iv.tr, 3
  %57 = sub i32 24, %56
  %58 = lshr i32 %55, %57
  %59 = trunc i32 %58 to i8
  %60 = getelementptr inbounds nuw i8, ptr %1, i64 %indvars.iv
  store i8 %59, ptr %60, align 1, !tbaa !9
  %61 = load i32, ptr %47, align 4, !tbaa !5
  %62 = lshr i32 %61, %57
  %63 = trunc i32 %62 to i8
  %64 = or disjoint i64 %indvars.iv, 4
  %65 = getelementptr inbounds nuw i8, ptr %1, i64 %64
  store i8 %63, ptr %65, align 1, !tbaa !9
  %66 = load i32, ptr %48, align 8, !tbaa !5
  %67 = lshr i32 %66, %57
  %68 = trunc i32 %67 to i8
  %69 = or disjoint i64 %indvars.iv, 8
  %70 = getelementptr inbounds nuw i8, ptr %1, i64 %69
  store i8 %68, ptr %70, align 1, !tbaa !9
  %71 = load i32, ptr %49, align 4, !tbaa !5
  %72 = lshr i32 %71, %57
  %73 = trunc i32 %72 to i8
  %74 = or disjoint i64 %indvars.iv, 12
  %75 = getelementptr inbounds nuw i8, ptr %1, i64 %74
  store i8 %73, ptr %75, align 1, !tbaa !9
  %76 = load i32, ptr %50, align 8, !tbaa !5
  %77 = lshr i32 %76, %57
  %78 = trunc i32 %77 to i8
  %79 = or disjoint i64 %indvars.iv, 16
  %80 = getelementptr inbounds nuw i8, ptr %1, i64 %79
  store i8 %78, ptr %80, align 1, !tbaa !9
  %81 = load i32, ptr %51, align 4, !tbaa !5
  %82 = lshr i32 %81, %57
  %83 = trunc i32 %82 to i8
  %84 = or disjoint i64 %indvars.iv, 20
  %85 = getelementptr inbounds nuw i8, ptr %1, i64 %84
  store i8 %83, ptr %85, align 1, !tbaa !9
  %86 = load i32, ptr %52, align 8, !tbaa !5
  %87 = lshr i32 %86, %57
  %88 = trunc i32 %87 to i8
  %89 = or disjoint i64 %indvars.iv, 24
  %90 = getelementptr inbounds nuw i8, ptr %1, i64 %89
  store i8 %88, ptr %90, align 1, !tbaa !9
  %91 = load i32, ptr %53, align 4, !tbaa !5
  %92 = lshr i32 %91, %57
  %93 = trunc i32 %92 to i8
  %94 = or disjoint i64 %indvars.iv, 28
  %95 = getelementptr inbounds nuw i8, ptr %1, i64 %94
  store i8 %93, ptr %95, align 1, !tbaa !9
  %indvars.iv.next = add nuw nsw i64 %indvars.iv, 1
  %exitcond.not = icmp eq i64 %indvars.iv.next, 4
  br i1 %exitcond.not, label %96, label %54, !llvm.loop !19

96:                                               ; preds = %54
  ret void
}